ARM GAS  /tmp/ccnl3tQG.s 			page 1


   1              		.cpu cortex-m4
   2              		.arch armv7e-m
   3              		.fpu fpv4-sp-d16
   4              		.eabi_attribute 27, 1
   5              		.eabi_attribute 28, 1
   6              		.eabi_attribute 20, 1
   7              		.eabi_attribute 21, 1
   8              		.eabi_attribute 23, 3
   9              		.eabi_attribute 24, 1
  10              		.eabi_attribute 25, 1
  11              		.eabi_attribute 26, 1
  12              		.eabi_attribute 30, 1
  13              		.eabi_attribute 34, 1
  14              		.eabi_attribute 18, 4
  15              		.file	"usart.c"
  16              		.text
  17              	.Ltext0:
  18              		.cfi_sections	.debug_frame
  19              		.section	.text.MX_UART4_Init,"ax",%progbits
  20              		.align	1
  21              		.global	MX_UART4_Init
  22              		.syntax unified
  23              		.thumb
  24              		.thumb_func
  26              	MX_UART4_Init:
  27              	.LFB130:
  28              		.file 1 "Core/Src/usart.c"
   1:Core/Src/usart.c **** /* USER CODE BEGIN Header */
   2:Core/Src/usart.c **** /**
   3:Core/Src/usart.c ****   ******************************************************************************
   4:Core/Src/usart.c ****   * @file    usart.c
   5:Core/Src/usart.c ****   * @brief   This file provides code for the configuration
   6:Core/Src/usart.c ****   *          of the USART instances.
   7:Core/Src/usart.c ****   ******************************************************************************
   8:Core/Src/usart.c ****   * @attention
   9:Core/Src/usart.c ****   *
  10:Core/Src/usart.c ****   * Copyright (c) 2022 STMicroelectronics.
  11:Core/Src/usart.c ****   * All rights reserved.
  12:Core/Src/usart.c ****   *
  13:Core/Src/usart.c ****   * This software is licensed under terms that can be found in the LICENSE file
  14:Core/Src/usart.c ****   * in the root directory of this software component.
  15:Core/Src/usart.c ****   * If no LICENSE file comes with this software, it is provided AS-IS.
  16:Core/Src/usart.c ****   *
  17:Core/Src/usart.c ****   ******************************************************************************
  18:Core/Src/usart.c ****   */
  19:Core/Src/usart.c **** /* USER CODE END Header */
  20:Core/Src/usart.c **** /* Includes ------------------------------------------------------------------*/
  21:Core/Src/usart.c **** #include "usart.h"
  22:Core/Src/usart.c **** 
  23:Core/Src/usart.c **** /* USER CODE BEGIN 0 */
  24:Core/Src/usart.c **** 
  25:Core/Src/usart.c **** /* USER CODE END 0 */
  26:Core/Src/usart.c **** 
  27:Core/Src/usart.c **** UART_HandleTypeDef huart4;
  28:Core/Src/usart.c **** UART_HandleTypeDef huart5;
  29:Core/Src/usart.c **** 
  30:Core/Src/usart.c **** /* UART4 init function */
ARM GAS  /tmp/ccnl3tQG.s 			page 2


  31:Core/Src/usart.c **** void MX_UART4_Init(void)
  32:Core/Src/usart.c **** {
  29              		.loc 1 32 1 view -0
  30              		.cfi_startproc
  31              		@ args = 0, pretend = 0, frame = 0
  32              		@ frame_needed = 0, uses_anonymous_args = 0
  33 0000 08B5     		push	{r3, lr}
  34              	.LCFI0:
  35              		.cfi_def_cfa_offset 8
  36              		.cfi_offset 3, -8
  37              		.cfi_offset 14, -4
  33:Core/Src/usart.c **** 
  34:Core/Src/usart.c ****   /* USER CODE BEGIN UART4_Init 0 */
  35:Core/Src/usart.c **** 
  36:Core/Src/usart.c ****   /* USER CODE END UART4_Init 0 */
  37:Core/Src/usart.c **** 
  38:Core/Src/usart.c ****   /* USER CODE BEGIN UART4_Init 1 */
  39:Core/Src/usart.c **** 
  40:Core/Src/usart.c ****   /* USER CODE END UART4_Init 1 */
  41:Core/Src/usart.c ****   huart4.Instance = UART4;
  38              		.loc 1 41 3 view .LVU1
  39              		.loc 1 41 19 is_stmt 0 view .LVU2
  40 0002 0A48     		ldr	r0, .L5
  41 0004 0A4B     		ldr	r3, .L5+4
  42 0006 0360     		str	r3, [r0]
  42:Core/Src/usart.c ****   huart4.Init.BaudRate = 19200;
  43              		.loc 1 42 3 is_stmt 1 view .LVU3
  44              		.loc 1 42 24 is_stmt 0 view .LVU4
  45 0008 4FF49643 		mov	r3, #19200
  46 000c 4360     		str	r3, [r0, #4]
  43:Core/Src/usart.c ****   huart4.Init.WordLength = UART_WORDLENGTH_8B;
  47              		.loc 1 43 3 is_stmt 1 view .LVU5
  48              		.loc 1 43 26 is_stmt 0 view .LVU6
  49 000e 0023     		movs	r3, #0
  50 0010 8360     		str	r3, [r0, #8]
  44:Core/Src/usart.c ****   huart4.Init.StopBits = UART_STOPBITS_1;
  51              		.loc 1 44 3 is_stmt 1 view .LVU7
  52              		.loc 1 44 24 is_stmt 0 view .LVU8
  53 0012 C360     		str	r3, [r0, #12]
  45:Core/Src/usart.c ****   huart4.Init.Parity = UART_PARITY_NONE;
  54              		.loc 1 45 3 is_stmt 1 view .LVU9
  55              		.loc 1 45 22 is_stmt 0 view .LVU10
  56 0014 0361     		str	r3, [r0, #16]
  46:Core/Src/usart.c ****   huart4.Init.Mode = UART_MODE_TX_RX;
  57              		.loc 1 46 3 is_stmt 1 view .LVU11
  58              		.loc 1 46 20 is_stmt 0 view .LVU12
  59 0016 0C22     		movs	r2, #12
  60 0018 4261     		str	r2, [r0, #20]
  47:Core/Src/usart.c ****   huart4.Init.HwFlowCtl = UART_HWCONTROL_NONE;
  61              		.loc 1 47 3 is_stmt 1 view .LVU13
  62              		.loc 1 47 25 is_stmt 0 view .LVU14
  63 001a 8361     		str	r3, [r0, #24]
  48:Core/Src/usart.c ****   huart4.Init.OverSampling = UART_OVERSAMPLING_16;
  64              		.loc 1 48 3 is_stmt 1 view .LVU15
  65              		.loc 1 48 28 is_stmt 0 view .LVU16
  66 001c C361     		str	r3, [r0, #28]
  49:Core/Src/usart.c ****   if (HAL_UART_Init(&huart4) != HAL_OK)
ARM GAS  /tmp/ccnl3tQG.s 			page 3


  67              		.loc 1 49 3 is_stmt 1 view .LVU17
  68              		.loc 1 49 7 is_stmt 0 view .LVU18
  69 001e FFF7FEFF 		bl	HAL_UART_Init
  70              	.LVL0:
  71              		.loc 1 49 6 view .LVU19
  72 0022 00B9     		cbnz	r0, .L4
  73              	.L1:
  50:Core/Src/usart.c ****   {
  51:Core/Src/usart.c ****     Error_Handler();
  52:Core/Src/usart.c ****   }
  53:Core/Src/usart.c ****   /* USER CODE BEGIN UART4_Init 2 */
  54:Core/Src/usart.c **** 
  55:Core/Src/usart.c ****   /* USER CODE END UART4_Init 2 */
  56:Core/Src/usart.c **** 
  57:Core/Src/usart.c **** }
  74              		.loc 1 57 1 view .LVU20
  75 0024 08BD     		pop	{r3, pc}
  76              	.L4:
  51:Core/Src/usart.c ****   }
  77              		.loc 1 51 5 is_stmt 1 view .LVU21
  78 0026 FFF7FEFF 		bl	Error_Handler
  79              	.LVL1:
  80              		.loc 1 57 1 is_stmt 0 view .LVU22
  81 002a FBE7     		b	.L1
  82              	.L6:
  83              		.align	2
  84              	.L5:
  85 002c 00000000 		.word	.LANCHOR0
  86 0030 004C0040 		.word	1073761280
  87              		.cfi_endproc
  88              	.LFE130:
  90              		.section	.text.MX_UART5_Init,"ax",%progbits
  91              		.align	1
  92              		.global	MX_UART5_Init
  93              		.syntax unified
  94              		.thumb
  95              		.thumb_func
  97              	MX_UART5_Init:
  98              	.LFB131:
  58:Core/Src/usart.c **** /* UART5 init function */
  59:Core/Src/usart.c **** void MX_UART5_Init(void)
  60:Core/Src/usart.c **** {
  99              		.loc 1 60 1 is_stmt 1 view -0
 100              		.cfi_startproc
 101              		@ args = 0, pretend = 0, frame = 0
 102              		@ frame_needed = 0, uses_anonymous_args = 0
 103 0000 08B5     		push	{r3, lr}
 104              	.LCFI1:
 105              		.cfi_def_cfa_offset 8
 106              		.cfi_offset 3, -8
 107              		.cfi_offset 14, -4
  61:Core/Src/usart.c **** 
  62:Core/Src/usart.c ****   /* USER CODE BEGIN UART5_Init 0 */
  63:Core/Src/usart.c **** 
  64:Core/Src/usart.c ****   /* USER CODE END UART5_Init 0 */
  65:Core/Src/usart.c **** 
  66:Core/Src/usart.c ****   /* USER CODE BEGIN UART5_Init 1 */
ARM GAS  /tmp/ccnl3tQG.s 			page 4


  67:Core/Src/usart.c **** 
  68:Core/Src/usart.c ****   /* USER CODE END UART5_Init 1 */
  69:Core/Src/usart.c ****   huart5.Instance = UART5;
 108              		.loc 1 69 3 view .LVU24
 109              		.loc 1 69 19 is_stmt 0 view .LVU25
 110 0002 0A48     		ldr	r0, .L11
 111 0004 0A4B     		ldr	r3, .L11+4
 112 0006 0360     		str	r3, [r0]
  70:Core/Src/usart.c ****   huart5.Init.BaudRate = 19200;
 113              		.loc 1 70 3 is_stmt 1 view .LVU26
 114              		.loc 1 70 24 is_stmt 0 view .LVU27
 115 0008 4FF49643 		mov	r3, #19200
 116 000c 4360     		str	r3, [r0, #4]
  71:Core/Src/usart.c ****   huart5.Init.WordLength = UART_WORDLENGTH_8B;
 117              		.loc 1 71 3 is_stmt 1 view .LVU28
 118              		.loc 1 71 26 is_stmt 0 view .LVU29
 119 000e 0023     		movs	r3, #0
 120 0010 8360     		str	r3, [r0, #8]
  72:Core/Src/usart.c ****   huart5.Init.StopBits = UART_STOPBITS_1;
 121              		.loc 1 72 3 is_stmt 1 view .LVU30
 122              		.loc 1 72 24 is_stmt 0 view .LVU31
 123 0012 C360     		str	r3, [r0, #12]
  73:Core/Src/usart.c ****   huart5.Init.Parity = UART_PARITY_NONE;
 124              		.loc 1 73 3 is_stmt 1 view .LVU32
 125              		.loc 1 73 22 is_stmt 0 view .LVU33
 126 0014 0361     		str	r3, [r0, #16]
  74:Core/Src/usart.c ****   huart5.Init.Mode = UART_MODE_TX_RX;
 127              		.loc 1 74 3 is_stmt 1 view .LVU34
 128              		.loc 1 74 20 is_stmt 0 view .LVU35
 129 0016 0C22     		movs	r2, #12
 130 0018 4261     		str	r2, [r0, #20]
  75:Core/Src/usart.c ****   huart5.Init.HwFlowCtl = UART_HWCONTROL_NONE;
 131              		.loc 1 75 3 is_stmt 1 view .LVU36
 132              		.loc 1 75 25 is_stmt 0 view .LVU37
 133 001a 8361     		str	r3, [r0, #24]
  76:Core/Src/usart.c ****   huart5.Init.OverSampling = UART_OVERSAMPLING_16;
 134              		.loc 1 76 3 is_stmt 1 view .LVU38
 135              		.loc 1 76 28 is_stmt 0 view .LVU39
 136 001c C361     		str	r3, [r0, #28]
  77:Core/Src/usart.c ****   if (HAL_UART_Init(&huart5) != HAL_OK)
 137              		.loc 1 77 3 is_stmt 1 view .LVU40
 138              		.loc 1 77 7 is_stmt 0 view .LVU41
 139 001e FFF7FEFF 		bl	HAL_UART_Init
 140              	.LVL2:
 141              		.loc 1 77 6 view .LVU42
 142 0022 00B9     		cbnz	r0, .L10
 143              	.L7:
  78:Core/Src/usart.c ****   {
  79:Core/Src/usart.c ****     Error_Handler();
  80:Core/Src/usart.c ****   }
  81:Core/Src/usart.c ****   /* USER CODE BEGIN UART5_Init 2 */
  82:Core/Src/usart.c **** 
  83:Core/Src/usart.c ****   /* USER CODE END UART5_Init 2 */
  84:Core/Src/usart.c **** 
  85:Core/Src/usart.c **** }
 144              		.loc 1 85 1 view .LVU43
 145 0024 08BD     		pop	{r3, pc}
ARM GAS  /tmp/ccnl3tQG.s 			page 5


 146              	.L10:
  79:Core/Src/usart.c ****   }
 147              		.loc 1 79 5 is_stmt 1 view .LVU44
 148 0026 FFF7FEFF 		bl	Error_Handler
 149              	.LVL3:
 150              		.loc 1 85 1 is_stmt 0 view .LVU45
 151 002a FBE7     		b	.L7
 152              	.L12:
 153              		.align	2
 154              	.L11:
 155 002c 00000000 		.word	.LANCHOR1
 156 0030 00500040 		.word	1073762304
 157              		.cfi_endproc
 158              	.LFE131:
 160              		.section	.text.HAL_UART_MspInit,"ax",%progbits
 161              		.align	1
 162              		.global	HAL_UART_MspInit
 163              		.syntax unified
 164              		.thumb
 165              		.thumb_func
 167              	HAL_UART_MspInit:
 168              	.LVL4:
 169              	.LFB132:
  86:Core/Src/usart.c **** 
  87:Core/Src/usart.c **** void HAL_UART_MspInit(UART_HandleTypeDef* uartHandle)
  88:Core/Src/usart.c **** {
 170              		.loc 1 88 1 is_stmt 1 view -0
 171              		.cfi_startproc
 172              		@ args = 0, pretend = 0, frame = 40
 173              		@ frame_needed = 0, uses_anonymous_args = 0
 174              		.loc 1 88 1 is_stmt 0 view .LVU47
 175 0000 F0B5     		push	{r4, r5, r6, r7, lr}
 176              	.LCFI2:
 177              		.cfi_def_cfa_offset 20
 178              		.cfi_offset 4, -20
 179              		.cfi_offset 5, -16
 180              		.cfi_offset 6, -12
 181              		.cfi_offset 7, -8
 182              		.cfi_offset 14, -4
 183 0002 8BB0     		sub	sp, sp, #44
 184              	.LCFI3:
 185              		.cfi_def_cfa_offset 64
  89:Core/Src/usart.c **** 
  90:Core/Src/usart.c ****   GPIO_InitTypeDef GPIO_InitStruct = {0};
 186              		.loc 1 90 3 is_stmt 1 view .LVU48
 187              		.loc 1 90 20 is_stmt 0 view .LVU49
 188 0004 0023     		movs	r3, #0
 189 0006 0593     		str	r3, [sp, #20]
 190 0008 0693     		str	r3, [sp, #24]
 191 000a 0793     		str	r3, [sp, #28]
 192 000c 0893     		str	r3, [sp, #32]
 193 000e 0993     		str	r3, [sp, #36]
  91:Core/Src/usart.c ****   if(uartHandle->Instance==UART4)
 194              		.loc 1 91 3 is_stmt 1 view .LVU50
 195              		.loc 1 91 16 is_stmt 0 view .LVU51
 196 0010 0368     		ldr	r3, [r0]
 197              		.loc 1 91 5 view .LVU52
ARM GAS  /tmp/ccnl3tQG.s 			page 6


 198 0012 3A4A     		ldr	r2, .L19
 199 0014 9342     		cmp	r3, r2
 200 0016 04D0     		beq	.L17
  92:Core/Src/usart.c ****   {
  93:Core/Src/usart.c ****   /* USER CODE BEGIN UART4_MspInit 0 */
  94:Core/Src/usart.c **** 
  95:Core/Src/usart.c ****   /* USER CODE END UART4_MspInit 0 */
  96:Core/Src/usart.c ****     /* UART4 clock enable */
  97:Core/Src/usart.c ****     __HAL_RCC_UART4_CLK_ENABLE();
  98:Core/Src/usart.c **** 
  99:Core/Src/usart.c ****     __HAL_RCC_GPIOC_CLK_ENABLE();
 100:Core/Src/usart.c ****     /**UART4 GPIO Configuration
 101:Core/Src/usart.c ****     PC10     ------> UART4_TX
 102:Core/Src/usart.c ****     PC11     ------> UART4_RX
 103:Core/Src/usart.c ****     */
 104:Core/Src/usart.c ****     GPIO_InitStruct.Pin = GPIO_PIN_10|GPIO_PIN_11;
 105:Core/Src/usart.c ****     GPIO_InitStruct.Mode = GPIO_MODE_AF_PP;
 106:Core/Src/usart.c ****     GPIO_InitStruct.Pull = GPIO_NOPULL;
 107:Core/Src/usart.c ****     GPIO_InitStruct.Speed = GPIO_SPEED_FREQ_VERY_HIGH;
 108:Core/Src/usart.c ****     GPIO_InitStruct.Alternate = GPIO_AF8_UART4;
 109:Core/Src/usart.c ****     HAL_GPIO_Init(GPIOC, &GPIO_InitStruct);
 110:Core/Src/usart.c **** 
 111:Core/Src/usart.c ****     /* UART4 interrupt Init */
 112:Core/Src/usart.c ****     HAL_NVIC_SetPriority(UART4_IRQn, 0, 0);
 113:Core/Src/usart.c ****     HAL_NVIC_EnableIRQ(UART4_IRQn);
 114:Core/Src/usart.c ****   /* USER CODE BEGIN UART4_MspInit 1 */
 115:Core/Src/usart.c **** 
 116:Core/Src/usart.c ****   /* USER CODE END UART4_MspInit 1 */
 117:Core/Src/usart.c ****   }
 118:Core/Src/usart.c ****   else if(uartHandle->Instance==UART5)
 201              		.loc 1 118 8 is_stmt 1 view .LVU53
 202              		.loc 1 118 10 is_stmt 0 view .LVU54
 203 0018 394A     		ldr	r2, .L19+4
 204 001a 9342     		cmp	r3, r2
 205 001c 2DD0     		beq	.L18
 206              	.LVL5:
 207              	.L13:
 119:Core/Src/usart.c ****   {
 120:Core/Src/usart.c ****   /* USER CODE BEGIN UART5_MspInit 0 */
 121:Core/Src/usart.c **** 
 122:Core/Src/usart.c ****   /* USER CODE END UART5_MspInit 0 */
 123:Core/Src/usart.c ****     /* UART5 clock enable */
 124:Core/Src/usart.c ****     __HAL_RCC_UART5_CLK_ENABLE();
 125:Core/Src/usart.c **** 
 126:Core/Src/usart.c ****     __HAL_RCC_GPIOC_CLK_ENABLE();
 127:Core/Src/usart.c ****     __HAL_RCC_GPIOD_CLK_ENABLE();
 128:Core/Src/usart.c ****     /**UART5 GPIO Configuration
 129:Core/Src/usart.c ****     PC12     ------> UART5_TX
 130:Core/Src/usart.c ****     PD2     ------> UART5_RX
 131:Core/Src/usart.c ****     */
 132:Core/Src/usart.c ****     GPIO_InitStruct.Pin = GPIO_PIN_12;
 133:Core/Src/usart.c ****     GPIO_InitStruct.Mode = GPIO_MODE_AF_PP;
 134:Core/Src/usart.c ****     GPIO_InitStruct.Pull = GPIO_NOPULL;
 135:Core/Src/usart.c ****     GPIO_InitStruct.Speed = GPIO_SPEED_FREQ_VERY_HIGH;
 136:Core/Src/usart.c ****     GPIO_InitStruct.Alternate = GPIO_AF8_UART5;
 137:Core/Src/usart.c ****     HAL_GPIO_Init(GPIOC, &GPIO_InitStruct);
 138:Core/Src/usart.c **** 
ARM GAS  /tmp/ccnl3tQG.s 			page 7


 139:Core/Src/usart.c ****     GPIO_InitStruct.Pin = GPIO_PIN_2;
 140:Core/Src/usart.c ****     GPIO_InitStruct.Mode = GPIO_MODE_AF_PP;
 141:Core/Src/usart.c ****     GPIO_InitStruct.Pull = GPIO_NOPULL;
 142:Core/Src/usart.c ****     GPIO_InitStruct.Speed = GPIO_SPEED_FREQ_VERY_HIGH;
 143:Core/Src/usart.c ****     GPIO_InitStruct.Alternate = GPIO_AF8_UART5;
 144:Core/Src/usart.c ****     HAL_GPIO_Init(GPIOD, &GPIO_InitStruct);
 145:Core/Src/usart.c **** 
 146:Core/Src/usart.c ****     /* UART5 interrupt Init */
 147:Core/Src/usart.c ****     HAL_NVIC_SetPriority(UART5_IRQn, 0, 0);
 148:Core/Src/usart.c ****     HAL_NVIC_EnableIRQ(UART5_IRQn);
 149:Core/Src/usart.c ****   /* USER CODE BEGIN UART5_MspInit 1 */
 150:Core/Src/usart.c **** 
 151:Core/Src/usart.c ****   /* USER CODE END UART5_MspInit 1 */
 152:Core/Src/usart.c ****   }
 153:Core/Src/usart.c **** }
 208              		.loc 1 153 1 view .LVU55
 209 001e 0BB0     		add	sp, sp, #44
 210              	.LCFI4:
 211              		.cfi_remember_state
 212              		.cfi_def_cfa_offset 20
 213              		@ sp needed
 214 0020 F0BD     		pop	{r4, r5, r6, r7, pc}
 215              	.LVL6:
 216              	.L17:
 217              	.LCFI5:
 218              		.cfi_restore_state
  97:Core/Src/usart.c **** 
 219              		.loc 1 97 5 is_stmt 1 view .LVU56
 220              	.LBB2:
  97:Core/Src/usart.c **** 
 221              		.loc 1 97 5 view .LVU57
 222 0022 0024     		movs	r4, #0
 223 0024 0094     		str	r4, [sp]
  97:Core/Src/usart.c **** 
 224              		.loc 1 97 5 view .LVU58
 225 0026 374B     		ldr	r3, .L19+8
 226 0028 1A6C     		ldr	r2, [r3, #64]
 227 002a 42F40022 		orr	r2, r2, #524288
 228 002e 1A64     		str	r2, [r3, #64]
  97:Core/Src/usart.c **** 
 229              		.loc 1 97 5 view .LVU59
 230 0030 1A6C     		ldr	r2, [r3, #64]
 231 0032 02F40022 		and	r2, r2, #524288
 232 0036 0092     		str	r2, [sp]
  97:Core/Src/usart.c **** 
 233              		.loc 1 97 5 view .LVU60
 234 0038 009A     		ldr	r2, [sp]
 235              	.LBE2:
  97:Core/Src/usart.c **** 
 236              		.loc 1 97 5 view .LVU61
  99:Core/Src/usart.c ****     /**UART4 GPIO Configuration
 237              		.loc 1 99 5 view .LVU62
 238              	.LBB3:
  99:Core/Src/usart.c ****     /**UART4 GPIO Configuration
 239              		.loc 1 99 5 view .LVU63
 240 003a 0194     		str	r4, [sp, #4]
  99:Core/Src/usart.c ****     /**UART4 GPIO Configuration
ARM GAS  /tmp/ccnl3tQG.s 			page 8


 241              		.loc 1 99 5 view .LVU64
 242 003c 1A6B     		ldr	r2, [r3, #48]
 243 003e 42F00402 		orr	r2, r2, #4
 244 0042 1A63     		str	r2, [r3, #48]
  99:Core/Src/usart.c ****     /**UART4 GPIO Configuration
 245              		.loc 1 99 5 view .LVU65
 246 0044 1B6B     		ldr	r3, [r3, #48]
 247 0046 03F00403 		and	r3, r3, #4
 248 004a 0193     		str	r3, [sp, #4]
  99:Core/Src/usart.c ****     /**UART4 GPIO Configuration
 249              		.loc 1 99 5 view .LVU66
 250 004c 019B     		ldr	r3, [sp, #4]
 251              	.LBE3:
  99:Core/Src/usart.c ****     /**UART4 GPIO Configuration
 252              		.loc 1 99 5 view .LVU67
 104:Core/Src/usart.c ****     GPIO_InitStruct.Mode = GPIO_MODE_AF_PP;
 253              		.loc 1 104 5 view .LVU68
 104:Core/Src/usart.c ****     GPIO_InitStruct.Mode = GPIO_MODE_AF_PP;
 254              		.loc 1 104 25 is_stmt 0 view .LVU69
 255 004e 4FF44063 		mov	r3, #3072
 256 0052 0593     		str	r3, [sp, #20]
 105:Core/Src/usart.c ****     GPIO_InitStruct.Pull = GPIO_NOPULL;
 257              		.loc 1 105 5 is_stmt 1 view .LVU70
 105:Core/Src/usart.c ****     GPIO_InitStruct.Pull = GPIO_NOPULL;
 258              		.loc 1 105 26 is_stmt 0 view .LVU71
 259 0054 0223     		movs	r3, #2
 260 0056 0693     		str	r3, [sp, #24]
 106:Core/Src/usart.c ****     GPIO_InitStruct.Speed = GPIO_SPEED_FREQ_VERY_HIGH;
 261              		.loc 1 106 5 is_stmt 1 view .LVU72
 107:Core/Src/usart.c ****     GPIO_InitStruct.Alternate = GPIO_AF8_UART4;
 262              		.loc 1 107 5 view .LVU73
 107:Core/Src/usart.c ****     GPIO_InitStruct.Alternate = GPIO_AF8_UART4;
 263              		.loc 1 107 27 is_stmt 0 view .LVU74
 264 0058 0323     		movs	r3, #3
 265 005a 0893     		str	r3, [sp, #32]
 108:Core/Src/usart.c ****     HAL_GPIO_Init(GPIOC, &GPIO_InitStruct);
 266              		.loc 1 108 5 is_stmt 1 view .LVU75
 108:Core/Src/usart.c ****     HAL_GPIO_Init(GPIOC, &GPIO_InitStruct);
 267              		.loc 1 108 31 is_stmt 0 view .LVU76
 268 005c 0823     		movs	r3, #8
 269 005e 0993     		str	r3, [sp, #36]
 109:Core/Src/usart.c **** 
 270              		.loc 1 109 5 is_stmt 1 view .LVU77
 271 0060 05A9     		add	r1, sp, #20
 272 0062 2948     		ldr	r0, .L19+12
 273              	.LVL7:
 109:Core/Src/usart.c **** 
 274              		.loc 1 109 5 is_stmt 0 view .LVU78
 275 0064 FFF7FEFF 		bl	HAL_GPIO_Init
 276              	.LVL8:
 112:Core/Src/usart.c ****     HAL_NVIC_EnableIRQ(UART4_IRQn);
 277              		.loc 1 112 5 is_stmt 1 view .LVU79
 278 0068 2246     		mov	r2, r4
 279 006a 2146     		mov	r1, r4
 280 006c 3420     		movs	r0, #52
 281 006e FFF7FEFF 		bl	HAL_NVIC_SetPriority
 282              	.LVL9:
ARM GAS  /tmp/ccnl3tQG.s 			page 9


 113:Core/Src/usart.c ****   /* USER CODE BEGIN UART4_MspInit 1 */
 283              		.loc 1 113 5 view .LVU80
 284 0072 3420     		movs	r0, #52
 285 0074 FFF7FEFF 		bl	HAL_NVIC_EnableIRQ
 286              	.LVL10:
 287 0078 D1E7     		b	.L13
 288              	.LVL11:
 289              	.L18:
 124:Core/Src/usart.c **** 
 290              		.loc 1 124 5 view .LVU81
 291              	.LBB4:
 124:Core/Src/usart.c **** 
 292              		.loc 1 124 5 view .LVU82
 293 007a 0024     		movs	r4, #0
 294 007c 0294     		str	r4, [sp, #8]
 124:Core/Src/usart.c **** 
 295              		.loc 1 124 5 view .LVU83
 296 007e 214B     		ldr	r3, .L19+8
 297 0080 1A6C     		ldr	r2, [r3, #64]
 298 0082 42F48012 		orr	r2, r2, #1048576
 299 0086 1A64     		str	r2, [r3, #64]
 124:Core/Src/usart.c **** 
 300              		.loc 1 124 5 view .LVU84
 301 0088 1A6C     		ldr	r2, [r3, #64]
 302 008a 02F48012 		and	r2, r2, #1048576
 303 008e 0292     		str	r2, [sp, #8]
 124:Core/Src/usart.c **** 
 304              		.loc 1 124 5 view .LVU85
 305 0090 029A     		ldr	r2, [sp, #8]
 306              	.LBE4:
 124:Core/Src/usart.c **** 
 307              		.loc 1 124 5 view .LVU86
 126:Core/Src/usart.c ****     __HAL_RCC_GPIOD_CLK_ENABLE();
 308              		.loc 1 126 5 view .LVU87
 309              	.LBB5:
 126:Core/Src/usart.c ****     __HAL_RCC_GPIOD_CLK_ENABLE();
 310              		.loc 1 126 5 view .LVU88
 311 0092 0394     		str	r4, [sp, #12]
 126:Core/Src/usart.c ****     __HAL_RCC_GPIOD_CLK_ENABLE();
 312              		.loc 1 126 5 view .LVU89
 313 0094 1A6B     		ldr	r2, [r3, #48]
 314 0096 42F00402 		orr	r2, r2, #4
 315 009a 1A63     		str	r2, [r3, #48]
 126:Core/Src/usart.c ****     __HAL_RCC_GPIOD_CLK_ENABLE();
 316              		.loc 1 126 5 view .LVU90
 317 009c 1A6B     		ldr	r2, [r3, #48]
 318 009e 02F00402 		and	r2, r2, #4
 319 00a2 0392     		str	r2, [sp, #12]
 126:Core/Src/usart.c ****     __HAL_RCC_GPIOD_CLK_ENABLE();
 320              		.loc 1 126 5 view .LVU91
 321 00a4 039A     		ldr	r2, [sp, #12]
 322              	.LBE5:
 126:Core/Src/usart.c ****     __HAL_RCC_GPIOD_CLK_ENABLE();
 323              		.loc 1 126 5 view .LVU92
 127:Core/Src/usart.c ****     /**UART5 GPIO Configuration
 324              		.loc 1 127 5 view .LVU93
 325              	.LBB6:
ARM GAS  /tmp/ccnl3tQG.s 			page 10


 127:Core/Src/usart.c ****     /**UART5 GPIO Configuration
 326              		.loc 1 127 5 view .LVU94
 327 00a6 0494     		str	r4, [sp, #16]
 127:Core/Src/usart.c ****     /**UART5 GPIO Configuration
 328              		.loc 1 127 5 view .LVU95
 329 00a8 1A6B     		ldr	r2, [r3, #48]
 330 00aa 42F00802 		orr	r2, r2, #8
 331 00ae 1A63     		str	r2, [r3, #48]
 127:Core/Src/usart.c ****     /**UART5 GPIO Configuration
 332              		.loc 1 127 5 view .LVU96
 333 00b0 1B6B     		ldr	r3, [r3, #48]
 334 00b2 03F00803 		and	r3, r3, #8
 335 00b6 0493     		str	r3, [sp, #16]
 127:Core/Src/usart.c ****     /**UART5 GPIO Configuration
 336              		.loc 1 127 5 view .LVU97
 337 00b8 049B     		ldr	r3, [sp, #16]
 338              	.LBE6:
 127:Core/Src/usart.c ****     /**UART5 GPIO Configuration
 339              		.loc 1 127 5 view .LVU98
 132:Core/Src/usart.c ****     GPIO_InitStruct.Mode = GPIO_MODE_AF_PP;
 340              		.loc 1 132 5 view .LVU99
 132:Core/Src/usart.c ****     GPIO_InitStruct.Mode = GPIO_MODE_AF_PP;
 341              		.loc 1 132 25 is_stmt 0 view .LVU100
 342 00ba 4FF48053 		mov	r3, #4096
 343 00be 0593     		str	r3, [sp, #20]
 133:Core/Src/usart.c ****     GPIO_InitStruct.Pull = GPIO_NOPULL;
 344              		.loc 1 133 5 is_stmt 1 view .LVU101
 133:Core/Src/usart.c ****     GPIO_InitStruct.Pull = GPIO_NOPULL;
 345              		.loc 1 133 26 is_stmt 0 view .LVU102
 346 00c0 0227     		movs	r7, #2
 347 00c2 0697     		str	r7, [sp, #24]
 134:Core/Src/usart.c ****     GPIO_InitStruct.Speed = GPIO_SPEED_FREQ_VERY_HIGH;
 348              		.loc 1 134 5 is_stmt 1 view .LVU103
 135:Core/Src/usart.c ****     GPIO_InitStruct.Alternate = GPIO_AF8_UART5;
 349              		.loc 1 135 5 view .LVU104
 135:Core/Src/usart.c ****     GPIO_InitStruct.Alternate = GPIO_AF8_UART5;
 350              		.loc 1 135 27 is_stmt 0 view .LVU105
 351 00c4 0326     		movs	r6, #3
 352 00c6 0896     		str	r6, [sp, #32]
 136:Core/Src/usart.c ****     HAL_GPIO_Init(GPIOC, &GPIO_InitStruct);
 353              		.loc 1 136 5 is_stmt 1 view .LVU106
 136:Core/Src/usart.c ****     HAL_GPIO_Init(GPIOC, &GPIO_InitStruct);
 354              		.loc 1 136 31 is_stmt 0 view .LVU107
 355 00c8 0825     		movs	r5, #8
 356 00ca 0995     		str	r5, [sp, #36]
 137:Core/Src/usart.c **** 
 357              		.loc 1 137 5 is_stmt 1 view .LVU108
 358 00cc 05A9     		add	r1, sp, #20
 359 00ce 0E48     		ldr	r0, .L19+12
 360              	.LVL12:
 137:Core/Src/usart.c **** 
 361              		.loc 1 137 5 is_stmt 0 view .LVU109
 362 00d0 FFF7FEFF 		bl	HAL_GPIO_Init
 363              	.LVL13:
 139:Core/Src/usart.c ****     GPIO_InitStruct.Mode = GPIO_MODE_AF_PP;
 364              		.loc 1 139 5 is_stmt 1 view .LVU110
 139:Core/Src/usart.c ****     GPIO_InitStruct.Mode = GPIO_MODE_AF_PP;
ARM GAS  /tmp/ccnl3tQG.s 			page 11


 365              		.loc 1 139 25 is_stmt 0 view .LVU111
 366 00d4 0423     		movs	r3, #4
 367 00d6 0593     		str	r3, [sp, #20]
 140:Core/Src/usart.c ****     GPIO_InitStruct.Pull = GPIO_NOPULL;
 368              		.loc 1 140 5 is_stmt 1 view .LVU112
 140:Core/Src/usart.c ****     GPIO_InitStruct.Pull = GPIO_NOPULL;
 369              		.loc 1 140 26 is_stmt 0 view .LVU113
 370 00d8 0697     		str	r7, [sp, #24]
 141:Core/Src/usart.c ****     GPIO_InitStruct.Speed = GPIO_SPEED_FREQ_VERY_HIGH;
 371              		.loc 1 141 5 is_stmt 1 view .LVU114
 141:Core/Src/usart.c ****     GPIO_InitStruct.Speed = GPIO_SPEED_FREQ_VERY_HIGH;
 372              		.loc 1 141 26 is_stmt 0 view .LVU115
 373 00da 0794     		str	r4, [sp, #28]
 142:Core/Src/usart.c ****     GPIO_InitStruct.Alternate = GPIO_AF8_UART5;
 374              		.loc 1 142 5 is_stmt 1 view .LVU116
 142:Core/Src/usart.c ****     GPIO_InitStruct.Alternate = GPIO_AF8_UART5;
 375              		.loc 1 142 27 is_stmt 0 view .LVU117
 376 00dc 0896     		str	r6, [sp, #32]
 143:Core/Src/usart.c ****     HAL_GPIO_Init(GPIOD, &GPIO_InitStruct);
 377              		.loc 1 143 5 is_stmt 1 view .LVU118
 143:Core/Src/usart.c ****     HAL_GPIO_Init(GPIOD, &GPIO_InitStruct);
 378              		.loc 1 143 31 is_stmt 0 view .LVU119
 379 00de 0995     		str	r5, [sp, #36]
 144:Core/Src/usart.c **** 
 380              		.loc 1 144 5 is_stmt 1 view .LVU120
 381 00e0 05A9     		add	r1, sp, #20
 382 00e2 0A48     		ldr	r0, .L19+16
 383 00e4 FFF7FEFF 		bl	HAL_GPIO_Init
 384              	.LVL14:
 147:Core/Src/usart.c ****     HAL_NVIC_EnableIRQ(UART5_IRQn);
 385              		.loc 1 147 5 view .LVU121
 386 00e8 2246     		mov	r2, r4
 387 00ea 2146     		mov	r1, r4
 388 00ec 3520     		movs	r0, #53
 389 00ee FFF7FEFF 		bl	HAL_NVIC_SetPriority
 390              	.LVL15:
 148:Core/Src/usart.c ****   /* USER CODE BEGIN UART5_MspInit 1 */
 391              		.loc 1 148 5 view .LVU122
 392 00f2 3520     		movs	r0, #53
 393 00f4 FFF7FEFF 		bl	HAL_NVIC_EnableIRQ
 394              	.LVL16:
 395              		.loc 1 153 1 is_stmt 0 view .LVU123
 396 00f8 91E7     		b	.L13
 397              	.L20:
 398 00fa 00BF     		.align	2
 399              	.L19:
 400 00fc 004C0040 		.word	1073761280
 401 0100 00500040 		.word	1073762304
 402 0104 00380240 		.word	1073887232
 403 0108 00080240 		.word	1073874944
 404 010c 000C0240 		.word	1073875968
 405              		.cfi_endproc
 406              	.LFE132:
 408              		.section	.text.HAL_UART_MspDeInit,"ax",%progbits
 409              		.align	1
 410              		.global	HAL_UART_MspDeInit
 411              		.syntax unified
ARM GAS  /tmp/ccnl3tQG.s 			page 12


 412              		.thumb
 413              		.thumb_func
 415              	HAL_UART_MspDeInit:
 416              	.LVL17:
 417              	.LFB133:
 154:Core/Src/usart.c **** 
 155:Core/Src/usart.c **** void HAL_UART_MspDeInit(UART_HandleTypeDef* uartHandle)
 156:Core/Src/usart.c **** {
 418              		.loc 1 156 1 is_stmt 1 view -0
 419              		.cfi_startproc
 420              		@ args = 0, pretend = 0, frame = 0
 421              		@ frame_needed = 0, uses_anonymous_args = 0
 422              		.loc 1 156 1 is_stmt 0 view .LVU125
 423 0000 08B5     		push	{r3, lr}
 424              	.LCFI6:
 425              		.cfi_def_cfa_offset 8
 426              		.cfi_offset 3, -8
 427              		.cfi_offset 14, -4
 157:Core/Src/usart.c **** 
 158:Core/Src/usart.c ****   if(uartHandle->Instance==UART4)
 428              		.loc 1 158 3 is_stmt 1 view .LVU126
 429              		.loc 1 158 16 is_stmt 0 view .LVU127
 430 0002 0368     		ldr	r3, [r0]
 431              		.loc 1 158 5 view .LVU128
 432 0004 144A     		ldr	r2, .L27
 433 0006 9342     		cmp	r3, r2
 434 0008 03D0     		beq	.L25
 159:Core/Src/usart.c ****   {
 160:Core/Src/usart.c ****   /* USER CODE BEGIN UART4_MspDeInit 0 */
 161:Core/Src/usart.c **** 
 162:Core/Src/usart.c ****   /* USER CODE END UART4_MspDeInit 0 */
 163:Core/Src/usart.c ****     /* Peripheral clock disable */
 164:Core/Src/usart.c ****     __HAL_RCC_UART4_CLK_DISABLE();
 165:Core/Src/usart.c **** 
 166:Core/Src/usart.c ****     /**UART4 GPIO Configuration
 167:Core/Src/usart.c ****     PC10     ------> UART4_TX
 168:Core/Src/usart.c ****     PC11     ------> UART4_RX
 169:Core/Src/usart.c ****     */
 170:Core/Src/usart.c ****     HAL_GPIO_DeInit(GPIOC, GPIO_PIN_10|GPIO_PIN_11);
 171:Core/Src/usart.c **** 
 172:Core/Src/usart.c ****     /* UART4 interrupt Deinit */
 173:Core/Src/usart.c ****     HAL_NVIC_DisableIRQ(UART4_IRQn);
 174:Core/Src/usart.c ****   /* USER CODE BEGIN UART4_MspDeInit 1 */
 175:Core/Src/usart.c **** 
 176:Core/Src/usart.c ****   /* USER CODE END UART4_MspDeInit 1 */
 177:Core/Src/usart.c ****   }
 178:Core/Src/usart.c ****   else if(uartHandle->Instance==UART5)
 435              		.loc 1 178 8 is_stmt 1 view .LVU129
 436              		.loc 1 178 10 is_stmt 0 view .LVU130
 437 000a 144A     		ldr	r2, .L27+4
 438 000c 9342     		cmp	r3, r2
 439 000e 0FD0     		beq	.L26
 440              	.LVL18:
 441              	.L21:
 179:Core/Src/usart.c ****   {
 180:Core/Src/usart.c ****   /* USER CODE BEGIN UART5_MspDeInit 0 */
 181:Core/Src/usart.c **** 
ARM GAS  /tmp/ccnl3tQG.s 			page 13


 182:Core/Src/usart.c ****   /* USER CODE END UART5_MspDeInit 0 */
 183:Core/Src/usart.c ****     /* Peripheral clock disable */
 184:Core/Src/usart.c ****     __HAL_RCC_UART5_CLK_DISABLE();
 185:Core/Src/usart.c **** 
 186:Core/Src/usart.c ****     /**UART5 GPIO Configuration
 187:Core/Src/usart.c ****     PC12     ------> UART5_TX
 188:Core/Src/usart.c ****     PD2     ------> UART5_RX
 189:Core/Src/usart.c ****     */
 190:Core/Src/usart.c ****     HAL_GPIO_DeInit(GPIOC, GPIO_PIN_12);
 191:Core/Src/usart.c **** 
 192:Core/Src/usart.c ****     HAL_GPIO_DeInit(GPIOD, GPIO_PIN_2);
 193:Core/Src/usart.c **** 
 194:Core/Src/usart.c ****     /* UART5 interrupt Deinit */
 195:Core/Src/usart.c ****     HAL_NVIC_DisableIRQ(UART5_IRQn);
 196:Core/Src/usart.c ****   /* USER CODE BEGIN UART5_MspDeInit 1 */
 197:Core/Src/usart.c **** 
 198:Core/Src/usart.c ****   /* USER CODE END UART5_MspDeInit 1 */
 199:Core/Src/usart.c ****   }
 200:Core/Src/usart.c **** }
 442              		.loc 1 200 1 view .LVU131
 443 0010 08BD     		pop	{r3, pc}
 444              	.LVL19:
 445              	.L25:
 164:Core/Src/usart.c **** 
 446              		.loc 1 164 5 is_stmt 1 view .LVU132
 447 0012 02F5F632 		add	r2, r2, #125952
 448 0016 136C     		ldr	r3, [r2, #64]
 449 0018 23F40023 		bic	r3, r3, #524288
 450 001c 1364     		str	r3, [r2, #64]
 170:Core/Src/usart.c **** 
 451              		.loc 1 170 5 view .LVU133
 452 001e 4FF44061 		mov	r1, #3072
 453 0022 0F48     		ldr	r0, .L27+8
 454              	.LVL20:
 170:Core/Src/usart.c **** 
 455              		.loc 1 170 5 is_stmt 0 view .LVU134
 456 0024 FFF7FEFF 		bl	HAL_GPIO_DeInit
 457              	.LVL21:
 173:Core/Src/usart.c ****   /* USER CODE BEGIN UART4_MspDeInit 1 */
 458              		.loc 1 173 5 is_stmt 1 view .LVU135
 459 0028 3420     		movs	r0, #52
 460 002a FFF7FEFF 		bl	HAL_NVIC_DisableIRQ
 461              	.LVL22:
 462 002e EFE7     		b	.L21
 463              	.LVL23:
 464              	.L26:
 184:Core/Src/usart.c **** 
 465              		.loc 1 184 5 view .LVU136
 466 0030 02F5F432 		add	r2, r2, #124928
 467 0034 136C     		ldr	r3, [r2, #64]
 468 0036 23F48013 		bic	r3, r3, #1048576
 469 003a 1364     		str	r3, [r2, #64]
 190:Core/Src/usart.c **** 
 470              		.loc 1 190 5 view .LVU137
 471 003c 4FF48051 		mov	r1, #4096
 472 0040 0748     		ldr	r0, .L27+8
 473              	.LVL24:
ARM GAS  /tmp/ccnl3tQG.s 			page 14


 190:Core/Src/usart.c **** 
 474              		.loc 1 190 5 is_stmt 0 view .LVU138
 475 0042 FFF7FEFF 		bl	HAL_GPIO_DeInit
 476              	.LVL25:
 192:Core/Src/usart.c **** 
 477              		.loc 1 192 5 is_stmt 1 view .LVU139
 478 0046 0421     		movs	r1, #4
 479 0048 0648     		ldr	r0, .L27+12
 480 004a FFF7FEFF 		bl	HAL_GPIO_DeInit
 481              	.LVL26:
 195:Core/Src/usart.c ****   /* USER CODE BEGIN UART5_MspDeInit 1 */
 482              		.loc 1 195 5 view .LVU140
 483 004e 3520     		movs	r0, #53
 484 0050 FFF7FEFF 		bl	HAL_NVIC_DisableIRQ
 485              	.LVL27:
 486              		.loc 1 200 1 is_stmt 0 view .LVU141
 487 0054 DCE7     		b	.L21
 488              	.L28:
 489 0056 00BF     		.align	2
 490              	.L27:
 491 0058 004C0040 		.word	1073761280
 492 005c 00500040 		.word	1073762304
 493 0060 00080240 		.word	1073874944
 494 0064 000C0240 		.word	1073875968
 495              		.cfi_endproc
 496              	.LFE133:
 498              		.global	huart5
 499              		.global	huart4
 500              		.section	.bss.huart4,"aw",%nobits
 501              		.align	2
 502              		.set	.LANCHOR0,. + 0
 505              	huart4:
 506 0000 00000000 		.space	68
 506      00000000 
 506      00000000 
 506      00000000 
 506      00000000 
 507              		.section	.bss.huart5,"aw",%nobits
 508              		.align	2
 509              		.set	.LANCHOR1,. + 0
 512              	huart5:
 513 0000 00000000 		.space	68
 513      00000000 
 513      00000000 
 513      00000000 
 513      00000000 
 514              		.text
 515              	.Letext0:
 516              		.file 2 "Drivers/CMSIS/Device/ST/STM32F4xx/Include/stm32f429xx.h"
 517              		.file 3 "/usr/arm-none-eabi/include/machine/_default_types.h"
 518              		.file 4 "/usr/arm-none-eabi/include/sys/_stdint.h"
 519              		.file 5 "Drivers/STM32F4xx_HAL_Driver/Inc/stm32f4xx_hal_def.h"
 520              		.file 6 "Drivers/STM32F4xx_HAL_Driver/Inc/stm32f4xx_hal_gpio.h"
 521              		.file 7 "Drivers/STM32F4xx_HAL_Driver/Inc/stm32f4xx_hal_dma.h"
 522              		.file 8 "Drivers/STM32F4xx_HAL_Driver/Inc/stm32f4xx_hal_uart.h"
 523              		.file 9 "Core/Inc/usart.h"
 524              		.file 10 "Drivers/STM32F4xx_HAL_Driver/Inc/stm32f4xx_hal_cortex.h"
ARM GAS  /tmp/ccnl3tQG.s 			page 15


 525              		.file 11 "Core/Inc/main.h"
ARM GAS  /tmp/ccnl3tQG.s 			page 16

